
key.elf:     file format elf32-littlearm

Disassembly of section .text:

30000000 <_start>:
30000000:	ea000036 	b	300000e0 <_reset>
30000004:	e59ff014 	ldr	pc, [pc, #20]	; 30000020 <_und_exception>
30000008:	e59ff014 	ldr	pc, [pc, #20]	; 30000024 <_swi_exception>
3000000c:	ea00006f 	b	300001d0 <halt>
30000010:	ea00006e 	b	300001d0 <halt>
30000014:	ea00006d 	b	300001d0 <halt>
30000018:	e59ff008 	ldr	pc, [pc, #8]	; 30000028 <_irq_exception>
3000001c:	ea00006b 	b	300001d0 <halt>

30000020 <_und_exception>:
30000020:	300000a0 	.word	0x300000a0

30000024 <_swi_exception>:
30000024:	30000050 	.word	0x30000050

30000028 <_irq_exception>:
30000028:	30000030 	.word	0x30000030
3000002c:	e1a00000 	.word	0xe1a00000

30000030 <_irq_exception_fun>:
30000030:	e59fd1f4 	ldr	sp, [pc, #500]	; 3000022c <_swicode_string+0xc>
30000034:	e24ee004 	sub	lr, lr, #4	; 0x4
30000038:	e92d5fff 	push	{r0, r1, r2, r3, r4, r5, r6, r7, r8, r9, sl, fp, ip, lr}
3000003c:	eb000247 	bl	30000960 <irq_handle>
30000040:	e8fd9fff 	ldm	sp!, {r0, r1, r2, r3, r4, r5, r6, r7, r8, r9, sl, fp, ip, pc}^
30000044:	e1a00000 	nop			(mov r0,r0)
30000048:	e1a00000 	nop			(mov r0,r0)
3000004c:	e1a00000 	nop			(mov r0,r0)

30000050 <_swi_exception_fun>:
30000050:	e59fd1d8 	ldr	sp, [pc, #472]	; 30000230 <_swicode_string+0x10>
30000054:	e92d5fff 	push	{r0, r1, r2, r3, r4, r5, r6, r7, r8, r9, sl, fp, ip, lr}
30000058:	e24e4004 	sub	r4, lr, #4	; 0x4
3000005c:	e5940000 	ldr	r0, [r4]
30000060:	e3c004ff 	bic	r0, r0, #-16777216	; 0xff000000
30000064:	eb000141 	bl	30000570 <print>
30000068:	e59f01c4 	ldr	r0, [pc, #452]	; 30000234 <_swicode_string+0x14>
3000006c:	eb00012c 	bl	30000524 <puts>
30000070:	e59f01c0 	ldr	r0, [pc, #448]	; 30000238 <_swicode_string+0x18>
30000074:	eb00012a 	bl	30000524 <puts>
30000078:	e10f0000 	mrs	r0, CPSR
3000007c:	eb00013b 	bl	30000570 <print>
30000080:	e59f01ac 	ldr	r0, [pc, #428]	; 30000234 <_swicode_string+0x14>
30000084:	eb000126 	bl	30000524 <puts>
30000088:	e8fd9fff 	ldm	sp!, {r0, r1, r2, r3, r4, r5, r6, r7, r8, r9, sl, fp, ip, pc}^

3000008c <_swi_string>:
3000008c:	20697773 	rsbcs	r7, r9, r3, ror r7
30000090:	65637865 	strbvs	r7, [r3, #-2149]!
30000094:	6f697470 	svcvs	0x00697470
30000098:	00000a6e 	andeq	r0, r0, lr, ror #20
3000009c:	e1a00000 	nop			(mov r0,r0)

300000a0 <_und_exception_fun>:
300000a0:	e59fd194 	ldr	sp, [pc, #404]	; 3000023c <_swicode_string+0x1c>
300000a4:	e92d5fff 	push	{r0, r1, r2, r3, r4, r5, r6, r7, r8, r9, sl, fp, ip, lr}
300000a8:	e59f0190 	ldr	r0, [pc, #400]	; 30000240 <_swicode_string+0x20>
300000ac:	eb00011c 	bl	30000524 <puts>
300000b0:	e10f0000 	mrs	r0, CPSR
300000b4:	eb00012d 	bl	30000570 <print>
300000b8:	e59f0174 	ldr	r0, [pc, #372]	; 30000234 <_swicode_string+0x14>
300000bc:	eb000118 	bl	30000524 <puts>
300000c0:	e8fd9fff 	ldm	sp!, {r0, r1, r2, r3, r4, r5, r6, r7, r8, r9, sl, fp, ip, pc}^

300000c4 <_und_string>:
300000c4:	65646e75 	strbvs	r6, [r4, #-3701]!
300000c8:	656e6966 	strbvs	r6, [lr, #-2406]!
300000cc:	63786520 	cmnvs	r8, #134217728	; 0x8000000
300000d0:	69747065 	ldmdbvs	r4!, {r0, r2, r5, r6, ip, sp, lr}^
300000d4:	000a6e6f 	andeq	r6, sl, pc, ror #28

300000d8 <_enter_string>:
300000d8:	0000000a 	andeq	r0, r0, sl
300000dc:	e1a00000 	nop			(mov r0,r0)

300000e0 <_reset>:
300000e0:	e3a00453 	mov	r0, #1392508928	; 0x53000000
300000e4:	e3a01000 	mov	r1, #0	; 0x0
300000e8:	e5801000 	str	r1, [r0]
300000ec:	e3a00313 	mov	r0, #1275068416	; 0x4c000000
300000f0:	e3e01000 	mvn	r1, #0	; 0x0
300000f4:	e5801000 	str	r1, [r0]
300000f8:	e59f0144 	ldr	r0, [pc, #324]	; 30000244 <_swicode_string+0x24>
300000fc:	e3a01005 	mov	r1, #5	; 0x5
30000100:	e5801000 	str	r1, [r0]
30000104:	ee110f10 	mrc	15, 0, r0, cr1, cr0, {0}
30000108:	e3800103 	orr	r0, r0, #-1073741824	; 0xc0000000
3000010c:	ee010f10 	mcr	15, 0, r0, cr1, cr0, {0}
30000110:	e59f0130 	ldr	r0, [pc, #304]	; 30000248 <_swicode_string+0x28>
30000114:	e59f1130 	ldr	r1, [pc, #304]	; 3000024c <_swicode_string+0x2c>
30000118:	e5801000 	str	r1, [r0]
3000011c:	e3a01000 	mov	r1, #0	; 0x0
30000120:	e5910000 	ldr	r0, [r1]
30000124:	e5811000 	str	r1, [r1]
30000128:	e5902000 	ldr	r2, [r0]
3000012c:	e1510002 	cmp	r1, r2
30000130:	e59fd118 	ldr	sp, [pc, #280]	; 30000250 <_swicode_string+0x30>
30000134:	03a0da01 	moveq	sp, #4096	; 0x1000
30000138:	05810000 	streq	r0, [r1]
3000013c:	eb000054 	bl	30000294 <sdram_init>
30000140:	e3a01000 	mov	r1, #0	; 0x0
30000144:	e59f2108 	ldr	r2, [pc, #264]	; 30000254 <_swicode_string+0x34>
30000148:	e59f3108 	ldr	r3, [pc, #264]	; 30000258 <_swicode_string+0x38>

3000014c <_relocate>:
3000014c:	e5914000 	ldr	r4, [r1]
30000150:	e5824000 	str	r4, [r2]
30000154:	e2811004 	add	r1, r1, #4	; 0x4
30000158:	e2822004 	add	r2, r2, #4	; 0x4
3000015c:	e1520003 	cmp	r2, r3
30000160:	dafffff9 	ble	3000014c <_relocate>
30000164:	e3a03000 	mov	r3, #0	; 0x0
30000168:	e59f10e8 	ldr	r1, [pc, #232]	; 30000258 <_swicode_string+0x38>
3000016c:	e59f20e8 	ldr	r2, [pc, #232]	; 3000025c <_swicode_string+0x3c>

30000170 <_bss_relocate>:
30000170:	e5813000 	str	r3, [r1]
30000174:	e2811004 	add	r1, r1, #4	; 0x4
30000178:	e1510002 	cmp	r1, r2
3000017c:	dafffffb 	ble	30000170 <_bss_relocate>
30000180:	e59ff0d8 	ldr	pc, [pc, #216]	; 30000260 <_swicode_string+0x40>

30000184 <__sdram>:
30000184:	eb000099 	bl	300003f0 <uart0_init>
30000188:	e59f00d4 	ldr	r0, [pc, #212]	; 30000264 <_swicode_string+0x44>
3000018c:	eb0000e4 	bl	30000524 <puts>
30000190:	e10f0000 	mrs	r0, CPSR
30000194:	e3c0000f 	bic	r0, r0, #15	; 0xf
30000198:	e3c00080 	bic	r0, r0, #128	; 0x80
3000019c:	e129f000 	msr	CPSR_fc, r0
300001a0:	e3a0d30d 	mov	sp, #872415232	; 0x34000000
300001a4:	eb0000f1 	bl	30000570 <print>
300001a8:	e59f0084 	ldr	r0, [pc, #132]	; 30000234 <_swicode_string+0x14>
300001ac:	eb0000dc 	bl	30000524 <puts>
300001b0:	e59f00b0 	ldr	r0, [pc, #176]	; 30000268 <_swicode_string+0x48>
300001b4:	eb0000da 	bl	30000524 <puts>
300001b8:	deadc0de 	.word	0xdeadc0de
300001bc:	e59f00a8 	ldr	r0, [pc, #168]	; 3000026c <_swicode_string+0x4c>
300001c0:	eb0000d7 	bl	30000524 <puts>
300001c4:	ef00007b 	svc	0x0000007b
300001c8:	e59ff0a0 	ldr	pc, [pc, #160]	; 30000270 <_swicode_string+0x50>
300001cc:	e1a00000 	nop			(mov r0,r0)

300001d0 <halt>:
300001d0:	eafffffe 	b	300001d0 <halt>
300001d4:	e1a00000 	nop			(mov r0,r0)
300001d8:	e1a00000 	nop			(mov r0,r0)
300001dc:	e1a00000 	nop			(mov r0,r0)

300001e0 <_test_string>:
300001e0:	74736574 	ldrbtvc	r6, [r3], #-1396
300001e4:	00000a31 	andeq	r0, r0, r1, lsr sl
300001e8:	e1a00000 	nop			(mov r0,r0)
300001ec:	e1a00000 	nop			(mov r0,r0)

300001f0 <_ch_mode_string>:
300001f0:	20776f6e 	rsbscs	r6, r7, lr, ror #30
300001f4:	706d756a 	rsbvc	r7, sp, sl, ror #10
300001f8:	206f7420 	rsbcs	r7, pc, r0, lsr #8
300001fc:	20727375 	rsbscs	r7, r2, r5, ror r3
30000200:	65646f6d 	strbvs	r6, [r4, #-3949]!
30000204:	0000000a 	andeq	r0, r0, sl
30000208:	e1a00000 	nop			(mov r0,r0)
3000020c:	e1a00000 	nop			(mov r0,r0)

30000210 <_deadcode_string>:
30000210:	64616564 	strbtvs	r6, [r1], #-1380
30000214:	646f6320 	strbtvs	r6, [pc], #800	; 3000021c <_deadcode_string+0xc>
30000218:	00000a65 	andeq	r0, r0, r5, ror #20
3000021c:	e1a00000 	nop			(mov r0,r0)

30000220 <_swicode_string>:
30000220:	20697773 	rsbcs	r7, r9, r3, ror r7
30000224:	65646f63 	strbvs	r6, [r4, #-3939]!
30000228:	0000000a 	andeq	r0, r0, sl
3000022c:	33d00000 	.word	0x33d00000
30000230:	33e00000 	.word	0x33e00000
30000234:	300000d8 	.word	0x300000d8
30000238:	3000008c 	.word	0x3000008c
3000023c:	33f00000 	.word	0x33f00000
30000240:	300000c4 	.word	0x300000c4
30000244:	4c000014 	.word	0x4c000014
30000248:	4c000004 	.word	0x4c000004
3000024c:	0005c011 	.word	0x0005c011
30000250:	40001000 	.word	0x40001000
30000254:	30000000 	.word	0x30000000
30000258:	30000bfc 	.word	0x30000bfc
3000025c:	30000bfc 	.word	0x30000bfc
30000260:	30000184 	.word	0x30000184
30000264:	300001f0 	.word	0x300001f0
30000268:	30000210 	.word	0x30000210
3000026c:	30000220 	.word	0x30000220
30000270:	3000077c 	.word	0x3000077c
30000274:	e1a00000 	.word	0xe1a00000
30000278:	e1a00000 	.word	0xe1a00000
3000027c:	e1a00000 	.word	0xe1a00000

30000280 <nor_flash_init>:
30000280:	e52db004 	push	{fp}		; (str fp, [sp, #-4]!)
30000284:	e28db000 	add	fp, sp, #0	; 0x0
30000288:	e28bd000 	add	sp, fp, #0	; 0x0
3000028c:	e8bd0800 	pop	{fp}
30000290:	e12fff1e 	bx	lr

30000294 <sdram_init>:
30000294:	e52db004 	push	{fp}		; (str fp, [sp, #-4]!)
30000298:	e28db000 	add	fp, sp, #0	; 0x0
3000029c:	e3a02312 	mov	r2, #1207959552	; 0x48000000
300002a0:	e3a03422 	mov	r3, #570425344	; 0x22000000
300002a4:	e5823000 	str	r3, [r2]
300002a8:	e3a02312 	mov	r2, #1207959552	; 0x48000000
300002ac:	e282201c 	add	r2, r2, #28	; 0x1c
300002b0:	e3a03906 	mov	r3, #98304	; 0x18000
300002b4:	e2833001 	add	r3, r3, #1	; 0x1
300002b8:	e5823000 	str	r3, [r2]
300002bc:	e3a02312 	mov	r2, #1207959552	; 0x48000000
300002c0:	e2822024 	add	r2, r2, #36	; 0x24
300002c4:	e3a03502 	mov	r3, #8388608	; 0x800000
300002c8:	e2833e4f 	add	r3, r3, #1264	; 0x4f0
300002cc:	e2833005 	add	r3, r3, #5	; 0x5
300002d0:	e5823000 	str	r3, [r2]
300002d4:	e3a03312 	mov	r3, #1207959552	; 0x48000000
300002d8:	e2833028 	add	r3, r3, #40	; 0x28
300002dc:	e3a020b1 	mov	r2, #177	; 0xb1
300002e0:	e5832000 	str	r2, [r3]
300002e4:	e3a03312 	mov	r3, #1207959552	; 0x48000000
300002e8:	e283302c 	add	r3, r3, #44	; 0x2c
300002ec:	e3a02030 	mov	r2, #48	; 0x30
300002f0:	e5832000 	str	r2, [r3]
300002f4:	e28bd000 	add	sp, fp, #0	; 0x0
300002f8:	e8bd0800 	pop	{fp}
300002fc:	e12fff1e 	bx	lr

30000300 <sdram_test>:
30000300:	e52db004 	push	{fp}		; (str fp, [sp, #-4]!)
30000304:	e28db000 	add	fp, sp, #0	; 0x0
30000308:	e24dd014 	sub	sp, sp, #20	; 0x14
3000030c:	e3a03203 	mov	r3, #805306368	; 0x30000000
30000310:	e50b3008 	str	r3, [fp, #-8]
30000314:	e3a03000 	mov	r3, #0	; 0x0
30000318:	e50b300c 	str	r3, [fp, #-12]
3000031c:	ea000007 	b	30000340 <sdram_test+0x40>
30000320:	e51b200c 	ldr	r2, [fp, #-12]
30000324:	e51b3008 	ldr	r3, [fp, #-8]
30000328:	e0832002 	add	r2, r3, r2
3000032c:	e3a03055 	mov	r3, #85	; 0x55
30000330:	e5c23000 	strb	r3, [r2]
30000334:	e51b300c 	ldr	r3, [fp, #-12]
30000338:	e2833001 	add	r3, r3, #1	; 0x1
3000033c:	e50b300c 	str	r3, [fp, #-12]
30000340:	e51b300c 	ldr	r3, [fp, #-12]
30000344:	e3530063 	cmp	r3, #99	; 0x63
30000348:	dafffff4 	ble	30000320 <sdram_test+0x20>
3000034c:	e3a03000 	mov	r3, #0	; 0x0
30000350:	e50b300c 	str	r3, [fp, #-12]
30000354:	e51b300c 	ldr	r3, [fp, #-12]
30000358:	e3530063 	cmp	r3, #99	; 0x63
3000035c:	ca00000c 	bgt	30000394 <sdram_test+0x94>
30000360:	e51b200c 	ldr	r2, [fp, #-12]
30000364:	e51b3008 	ldr	r3, [fp, #-8]
30000368:	e0833002 	add	r3, r3, r2
3000036c:	e5d33000 	ldrb	r3, [r3]
30000370:	e20330ff 	and	r3, r3, #255	; 0xff
30000374:	e3530055 	cmp	r3, #85	; 0x55
30000378:	0a000002 	beq	30000388 <sdram_test+0x88>
3000037c:	e3a03001 	mov	r3, #1	; 0x1
30000380:	e50b3010 	str	r3, [fp, #-16]
30000384:	ea000003 	b	30000398 <sdram_test+0x98>
30000388:	e3a03000 	mov	r3, #0	; 0x0
3000038c:	e50b3010 	str	r3, [fp, #-16]
30000390:	ea000000 	b	30000398 <sdram_test+0x98>
30000394:	ea000001 	b	300003a0 <sdram_test+0xa0>
30000398:	e51b3010 	ldr	r3, [fp, #-16]
3000039c:	e50b3014 	str	r3, [fp, #-20]
300003a0:	e51b0014 	ldr	r0, [fp, #-20]
300003a4:	e28bd000 	add	sp, fp, #0	; 0x0
300003a8:	e8bd0800 	pop	{fp}
300003ac:	e12fff1e 	bx	lr

300003b0 <run_test>:
300003b0:	e92d4800 	push	{fp, lr}
300003b4:	e28db004 	add	fp, sp, #4	; 0x4
300003b8:	ebffffd0 	bl	30000300 <sdram_test>
300003bc:	e1a03000 	mov	r3, r0
300003c0:	e3530000 	cmp	r3, #0	; 0x0
300003c4:	1a000006 	bne	300003e4 <run_test+0x34>
300003c8:	e3a02456 	mov	r2, #1442840576	; 0x56000000
300003cc:	e2822054 	add	r2, r2, #84	; 0x54
300003d0:	e3a03456 	mov	r3, #1442840576	; 0x56000000
300003d4:	e2833054 	add	r3, r3, #84	; 0x54
300003d8:	e5933000 	ldr	r3, [r3]
300003dc:	e3c33020 	bic	r3, r3, #32	; 0x20
300003e0:	e5823000 	str	r3, [r2]
300003e4:	e24bd004 	sub	sp, fp, #4	; 0x4
300003e8:	e8bd4800 	pop	{fp, lr}
300003ec:	e12fff1e 	bx	lr

300003f0 <uart0_init>:
300003f0:	e52db004 	push	{fp}		; (str fp, [sp, #-4]!)
300003f4:	e28db000 	add	fp, sp, #0	; 0x0
300003f8:	e3a02456 	mov	r2, #1442840576	; 0x56000000
300003fc:	e2822070 	add	r2, r2, #112	; 0x70
30000400:	e3a03456 	mov	r3, #1442840576	; 0x56000000
30000404:	e2833070 	add	r3, r3, #112	; 0x70
30000408:	e5933000 	ldr	r3, [r3]
3000040c:	e3c330f0 	bic	r3, r3, #240	; 0xf0
30000410:	e5823000 	str	r3, [r2]
30000414:	e3a02456 	mov	r2, #1442840576	; 0x56000000
30000418:	e2822070 	add	r2, r2, #112	; 0x70
3000041c:	e3a03456 	mov	r3, #1442840576	; 0x56000000
30000420:	e2833070 	add	r3, r3, #112	; 0x70
30000424:	e5933000 	ldr	r3, [r3]
30000428:	e38330a0 	orr	r3, r3, #160	; 0xa0
3000042c:	e5823000 	str	r3, [r2]
30000430:	e3a02456 	mov	r2, #1442840576	; 0x56000000
30000434:	e2822078 	add	r2, r2, #120	; 0x78
30000438:	e3a03456 	mov	r3, #1442840576	; 0x56000000
3000043c:	e2833078 	add	r3, r3, #120	; 0x78
30000440:	e5933000 	ldr	r3, [r3]
30000444:	e3c3300c 	bic	r3, r3, #12	; 0xc
30000448:	e5823000 	str	r3, [r2]
3000044c:	e3a02245 	mov	r2, #1342177284	; 0x50000004
30000450:	e3a03005 	mov	r3, #5	; 0x5
30000454:	e5823000 	str	r3, [r2]
30000458:	e3a03205 	mov	r3, #1342177280	; 0x50000000
3000045c:	e2833028 	add	r3, r3, #40	; 0x28
30000460:	e3a0201a 	mov	r2, #26	; 0x1a
30000464:	e5832000 	str	r2, [r3]
30000468:	e3a02205 	mov	r2, #1342177280	; 0x50000000
3000046c:	e3a03003 	mov	r3, #3	; 0x3
30000470:	e5823000 	str	r3, [r2]
30000474:	e3a02456 	mov	r2, #1442840576	; 0x56000000
30000478:	e2822054 	add	r2, r2, #84	; 0x54
3000047c:	e3a03456 	mov	r3, #1442840576	; 0x56000000
30000480:	e2833054 	add	r3, r3, #84	; 0x54
30000484:	e5933000 	ldr	r3, [r3]
30000488:	e3c33010 	bic	r3, r3, #16	; 0x10
3000048c:	e5823000 	str	r3, [r2]
30000490:	e28bd000 	add	sp, fp, #0	; 0x0
30000494:	e8bd0800 	pop	{fp}
30000498:	e12fff1e 	bx	lr

3000049c <putchar>:
3000049c:	e52db004 	push	{fp}		; (str fp, [sp, #-4]!)
300004a0:	e28db000 	add	fp, sp, #0	; 0x0
300004a4:	e24dd00c 	sub	sp, sp, #12	; 0xc
300004a8:	e50b0008 	str	r0, [fp, #-8]
300004ac:	e3a03205 	mov	r3, #1342177280	; 0x50000000
300004b0:	e2833010 	add	r3, r3, #16	; 0x10
300004b4:	e5933000 	ldr	r3, [r3]
300004b8:	e2033004 	and	r3, r3, #4	; 0x4
300004bc:	e3530000 	cmp	r3, #0	; 0x0
300004c0:	0afffff9 	beq	300004ac <putchar+0x10>
300004c4:	e3a02205 	mov	r2, #1342177280	; 0x50000000
300004c8:	e2822020 	add	r2, r2, #32	; 0x20
300004cc:	e51b3008 	ldr	r3, [fp, #-8]
300004d0:	e20330ff 	and	r3, r3, #255	; 0xff
300004d4:	e5c23000 	strb	r3, [r2]
300004d8:	e28bd000 	add	sp, fp, #0	; 0x0
300004dc:	e8bd0800 	pop	{fp}
300004e0:	e12fff1e 	bx	lr

300004e4 <getchar>:
300004e4:	e52db004 	push	{fp}		; (str fp, [sp, #-4]!)
300004e8:	e28db000 	add	fp, sp, #0	; 0x0
300004ec:	e3a03205 	mov	r3, #1342177280	; 0x50000000
300004f0:	e2833010 	add	r3, r3, #16	; 0x10
300004f4:	e5933000 	ldr	r3, [r3]
300004f8:	e2033001 	and	r3, r3, #1	; 0x1
300004fc:	e3530000 	cmp	r3, #0	; 0x0
30000500:	0afffff9 	beq	300004ec <getchar+0x8>
30000504:	e3a03205 	mov	r3, #1342177280	; 0x50000000
30000508:	e2833024 	add	r3, r3, #36	; 0x24
3000050c:	e5d33000 	ldrb	r3, [r3]
30000510:	e20330ff 	and	r3, r3, #255	; 0xff
30000514:	e1a00003 	mov	r0, r3
30000518:	e28bd000 	add	sp, fp, #0	; 0x0
3000051c:	e8bd0800 	pop	{fp}
30000520:	e12fff1e 	bx	lr

30000524 <puts>:
30000524:	e92d4800 	push	{fp, lr}
30000528:	e28db004 	add	fp, sp, #4	; 0x4
3000052c:	e24dd008 	sub	sp, sp, #8	; 0x8
30000530:	e50b0008 	str	r0, [fp, #-8]
30000534:	ea000006 	b	30000554 <puts+0x30>
30000538:	e51b3008 	ldr	r3, [fp, #-8]
3000053c:	e5d33000 	ldrb	r3, [r3]
30000540:	e1a00003 	mov	r0, r3
30000544:	ebffffd4 	bl	3000049c <putchar>
30000548:	e51b3008 	ldr	r3, [fp, #-8]
3000054c:	e2833001 	add	r3, r3, #1	; 0x1
30000550:	e50b3008 	str	r3, [fp, #-8]
30000554:	e51b3008 	ldr	r3, [fp, #-8]
30000558:	e5d33000 	ldrb	r3, [r3]
3000055c:	e3530000 	cmp	r3, #0	; 0x0
30000560:	1afffff4 	bne	30000538 <puts+0x14>
30000564:	e24bd004 	sub	sp, fp, #4	; 0x4
30000568:	e8bd4800 	pop	{fp, lr}
3000056c:	e12fff1e 	bx	lr

30000570 <print>:
30000570:	e92d4800 	push	{fp, lr}
30000574:	e28db004 	add	fp, sp, #4	; 0x4
30000578:	e24dd010 	sub	sp, sp, #16	; 0x10
3000057c:	e50b0010 	str	r0, [fp, #-16]
30000580:	e59f0098 	ldr	r0, [pc, #152]	; 30000620 <print+0xb0>
30000584:	ebffffe6 	bl	30000524 <puts>
30000588:	e3a0301c 	mov	r3, #28	; 0x1c
3000058c:	e50b300c 	str	r3, [fp, #-12]
30000590:	ea00001c 	b	30000608 <print+0x98>
30000594:	e51b2010 	ldr	r2, [fp, #-16]
30000598:	e51b300c 	ldr	r3, [fp, #-12]
3000059c:	e1a03332 	lsr	r3, r2, r3
300005a0:	e203300f 	and	r3, r3, #15	; 0xf
300005a4:	e50b3008 	str	r3, [fp, #-8]
300005a8:	e51b3008 	ldr	r3, [fp, #-8]
300005ac:	e3530000 	cmp	r3, #0	; 0x0
300005b0:	ba000007 	blt	300005d4 <print+0x64>
300005b4:	e51b3008 	ldr	r3, [fp, #-8]
300005b8:	e3530009 	cmp	r3, #9	; 0x9
300005bc:	ca000004 	bgt	300005d4 <print+0x64>
300005c0:	e51b3008 	ldr	r3, [fp, #-8]
300005c4:	e2833030 	add	r3, r3, #48	; 0x30
300005c8:	e1a00003 	mov	r0, r3
300005cc:	ebffffb2 	bl	3000049c <putchar>
300005d0:	ea000009 	b	300005fc <print+0x8c>
300005d4:	e51b3008 	ldr	r3, [fp, #-8]
300005d8:	e3530009 	cmp	r3, #9	; 0x9
300005dc:	da000006 	ble	300005fc <print+0x8c>
300005e0:	e51b3008 	ldr	r3, [fp, #-8]
300005e4:	e353000f 	cmp	r3, #15	; 0xf
300005e8:	ca000003 	bgt	300005fc <print+0x8c>
300005ec:	e51b3008 	ldr	r3, [fp, #-8]
300005f0:	e2833057 	add	r3, r3, #87	; 0x57
300005f4:	e1a00003 	mov	r0, r3
300005f8:	ebffffa7 	bl	3000049c <putchar>
300005fc:	e51b300c 	ldr	r3, [fp, #-12]
30000600:	e2433004 	sub	r3, r3, #4	; 0x4
30000604:	e50b300c 	str	r3, [fp, #-12]
30000608:	e51b300c 	ldr	r3, [fp, #-12]
3000060c:	e3530000 	cmp	r3, #0	; 0x0
30000610:	aaffffdf 	bge	30000594 <print+0x24>
30000614:	e24bd004 	sub	sp, fp, #4	; 0x4
30000618:	e8bd4800 	pop	{fp, lr}
3000061c:	e12fff1e 	bx	lr
30000620:	30000be8 	.word	0x30000be8

30000624 <printHex>:
30000624:	e92d4800 	push	{fp, lr}
30000628:	e28db004 	add	fp, sp, #4	; 0x4
3000062c:	e24dd018 	sub	sp, sp, #24	; 0x18
30000630:	e50b0010 	str	r0, [fp, #-16]
30000634:	e50b1014 	str	r1, [fp, #-20]
30000638:	e51b3014 	ldr	r3, [fp, #-20]
3000063c:	e50b3018 	str	r3, [fp, #-24]
30000640:	e51b3018 	ldr	r3, [fp, #-24]
30000644:	e3530001 	cmp	r3, #1	; 0x1
30000648:	0a000009 	beq	30000674 <printHex+0x50>
3000064c:	e51b3018 	ldr	r3, [fp, #-24]
30000650:	e3530001 	cmp	r3, #1	; 0x1
30000654:	3a000003 	bcc	30000668 <printHex+0x44>
30000658:	e51b3018 	ldr	r3, [fp, #-24]
3000065c:	e3530002 	cmp	r3, #2	; 0x2
30000660:	0a000006 	beq	30000680 <printHex+0x5c>
30000664:	ea000007 	b	30000688 <printHex+0x64>
30000668:	e3a03004 	mov	r3, #4	; 0x4
3000066c:	e50b300c 	str	r3, [fp, #-12]
30000670:	ea000004 	b	30000688 <printHex+0x64>
30000674:	e3a0300c 	mov	r3, #12	; 0xc
30000678:	e50b300c 	str	r3, [fp, #-12]
3000067c:	ea000001 	b	30000688 <printHex+0x64>
30000680:	e3a0301c 	mov	r3, #28	; 0x1c
30000684:	e50b300c 	str	r3, [fp, #-12]
30000688:	e59f0090 	ldr	r0, [pc, #144]	; 30000720 <printHex+0xfc>
3000068c:	ebffffa4 	bl	30000524 <puts>
30000690:	ea00001c 	b	30000708 <printHex+0xe4>
30000694:	e51b2010 	ldr	r2, [fp, #-16]
30000698:	e51b300c 	ldr	r3, [fp, #-12]
3000069c:	e1a03332 	lsr	r3, r2, r3
300006a0:	e203300f 	and	r3, r3, #15	; 0xf
300006a4:	e50b3008 	str	r3, [fp, #-8]
300006a8:	e51b3008 	ldr	r3, [fp, #-8]
300006ac:	e3530000 	cmp	r3, #0	; 0x0
300006b0:	ba000007 	blt	300006d4 <printHex+0xb0>
300006b4:	e51b3008 	ldr	r3, [fp, #-8]
300006b8:	e3530009 	cmp	r3, #9	; 0x9
300006bc:	ca000004 	bgt	300006d4 <printHex+0xb0>
300006c0:	e51b3008 	ldr	r3, [fp, #-8]
300006c4:	e2833030 	add	r3, r3, #48	; 0x30
300006c8:	e1a00003 	mov	r0, r3
300006cc:	ebffff72 	bl	3000049c <putchar>
300006d0:	ea000009 	b	300006fc <printHex+0xd8>
300006d4:	e51b3008 	ldr	r3, [fp, #-8]
300006d8:	e3530009 	cmp	r3, #9	; 0x9
300006dc:	da000006 	ble	300006fc <printHex+0xd8>
300006e0:	e51b3008 	ldr	r3, [fp, #-8]
300006e4:	e353000f 	cmp	r3, #15	; 0xf
300006e8:	ca000003 	bgt	300006fc <printHex+0xd8>
300006ec:	e51b3008 	ldr	r3, [fp, #-8]
300006f0:	e2833057 	add	r3, r3, #87	; 0x57
300006f4:	e1a00003 	mov	r0, r3
300006f8:	ebffff67 	bl	3000049c <putchar>
300006fc:	e51b300c 	ldr	r3, [fp, #-12]
30000700:	e2433004 	sub	r3, r3, #4	; 0x4
30000704:	e50b300c 	str	r3, [fp, #-12]
30000708:	e51b300c 	ldr	r3, [fp, #-12]
3000070c:	e3530000 	cmp	r3, #0	; 0x0
30000710:	aaffffdf 	bge	30000694 <printHex+0x70>
30000714:	e24bd004 	sub	sp, fp, #4	; 0x4
30000718:	e8bd4800 	pop	{fp, lr}
3000071c:	e12fff1e 	bx	lr
30000720:	30000be8 	.word	0x30000be8

30000724 <led_init>:
30000724:	e52db004 	push	{fp}		; (str fp, [sp, #-4]!)
30000728:	e28db000 	add	fp, sp, #0	; 0x0
3000072c:	e3a03456 	mov	r3, #1442840576	; 0x56000000
30000730:	e2833050 	add	r3, r3, #80	; 0x50
30000734:	e3a02c55 	mov	r2, #21760	; 0x5500
30000738:	e5832000 	str	r2, [r3]
3000073c:	e3a03456 	mov	r3, #1442840576	; 0x56000000
30000740:	e2833054 	add	r3, r3, #84	; 0x54
30000744:	e3a020f0 	mov	r2, #240	; 0xf0
30000748:	e5832000 	str	r2, [r3]
3000074c:	e28bd000 	add	sp, fp, #0	; 0x0
30000750:	e8bd0800 	pop	{fp}
30000754:	e12fff1e 	bx	lr

30000758 <turn_on_led>:
30000758:	e52db004 	push	{fp}		; (str fp, [sp, #-4]!)
3000075c:	e28db000 	add	fp, sp, #0	; 0x0
30000760:	e3a03456 	mov	r3, #1442840576	; 0x56000000
30000764:	e2833054 	add	r3, r3, #84	; 0x54
30000768:	e3a02000 	mov	r2, #0	; 0x0
3000076c:	e5832000 	str	r2, [r3]
30000770:	e28bd000 	add	sp, fp, #0	; 0x0
30000774:	e8bd0800 	pop	{fp}
30000778:	e12fff1e 	bx	lr

3000077c <main>:
3000077c:	e92d4800 	push	{fp, lr}
30000780:	e28db004 	add	fp, sp, #4	; 0x4
30000784:	e24dd008 	sub	sp, sp, #8	; 0x8
30000788:	e3a03000 	mov	r3, #0	; 0x0
3000078c:	e50b3008 	str	r3, [fp, #-8]
30000790:	ebffffe3 	bl	30000724 <led_init>
30000794:	ebffff15 	bl	300003f0 <uart0_init>
30000798:	eb000023 	bl	3000082c <irq_source_init>
3000079c:	eb000063 	bl	30000930 <irq_controller_init>
300007a0:	e3a02456 	mov	r2, #1442840576	; 0x56000000
300007a4:	e2822054 	add	r2, r2, #84	; 0x54
300007a8:	e3a03456 	mov	r3, #1442840576	; 0x56000000
300007ac:	e2833054 	add	r3, r3, #84	; 0x54
300007b0:	e5933000 	ldr	r3, [r3]
300007b4:	e3c33020 	bic	r3, r3, #32	; 0x20
300007b8:	e5823000 	str	r3, [r2]
300007bc:	e59f0064 	ldr	r0, [pc, #100]	; 30000828 <main+0xac>
300007c0:	ebffff57 	bl	30000524 <puts>
300007c4:	e3a02456 	mov	r2, #1442840576	; 0x56000000
300007c8:	e2822054 	add	r2, r2, #84	; 0x54
300007cc:	e3a03456 	mov	r3, #1442840576	; 0x56000000
300007d0:	e2833054 	add	r3, r3, #84	; 0x54
300007d4:	e5933000 	ldr	r3, [r3]
300007d8:	e3c33040 	bic	r3, r3, #64	; 0x40
300007dc:	e5823000 	str	r3, [r2]
300007e0:	ebffff3f 	bl	300004e4 <getchar>
300007e4:	e1a03000 	mov	r3, r0
300007e8:	e54b300a 	strb	r3, [fp, #-10]
300007ec:	e55b300a 	ldrb	r3, [fp, #-10]
300007f0:	e353000a 	cmp	r3, #10	; 0xa
300007f4:	1a000002 	bne	30000804 <main+0x88>
300007f8:	e3a0000d 	mov	r0, #13	; 0xd
300007fc:	ebffff26 	bl	3000049c <putchar>
30000800:	ea000004 	b	30000818 <main+0x9c>
30000804:	e55b300a 	ldrb	r3, [fp, #-10]
30000808:	e353000d 	cmp	r3, #13	; 0xd
3000080c:	1a000001 	bne	30000818 <main+0x9c>
30000810:	e3a0000a 	mov	r0, #10	; 0xa
30000814:	ebffff20 	bl	3000049c <putchar>
30000818:	e55b300a 	ldrb	r3, [fp, #-10]
3000081c:	e1a00003 	mov	r0, r3
30000820:	ebffff1d 	bl	3000049c <putchar>
30000824:	eaffffed 	b	300007e0 <main+0x64>
30000828:	30000bec 	.word	0x30000bec

3000082c <irq_source_init>:
3000082c:	e52db004 	push	{fp}		; (str fp, [sp, #-4]!)
30000830:	e28db000 	add	fp, sp, #0	; 0x0
30000834:	e3a02456 	mov	r2, #1442840576	; 0x56000000
30000838:	e2822050 	add	r2, r2, #80	; 0x50
3000083c:	e3a03456 	mov	r3, #1442840576	; 0x56000000
30000840:	e2833050 	add	r3, r3, #80	; 0x50
30000844:	e5933000 	ldr	r3, [r3]
30000848:	e3c33033 	bic	r3, r3, #51	; 0x33
3000084c:	e5823000 	str	r3, [r2]
30000850:	e3a02456 	mov	r2, #1442840576	; 0x56000000
30000854:	e2822050 	add	r2, r2, #80	; 0x50
30000858:	e3a03456 	mov	r3, #1442840576	; 0x56000000
3000085c:	e2833050 	add	r3, r3, #80	; 0x50
30000860:	e5933000 	ldr	r3, [r3]
30000864:	e3833022 	orr	r3, r3, #34	; 0x22
30000868:	e5823000 	str	r3, [r2]
3000086c:	e3a02456 	mov	r2, #1442840576	; 0x56000000
30000870:	e2822060 	add	r2, r2, #96	; 0x60
30000874:	e3a03456 	mov	r3, #1442840576	; 0x56000000
30000878:	e2833060 	add	r3, r3, #96	; 0x60
3000087c:	e5933000 	ldr	r3, [r3]
30000880:	e3c33503 	bic	r3, r3, #12582912	; 0xc00000
30000884:	e3c330c0 	bic	r3, r3, #192	; 0xc0
30000888:	e5823000 	str	r3, [r2]
3000088c:	e3a02456 	mov	r2, #1442840576	; 0x56000000
30000890:	e2822060 	add	r2, r2, #96	; 0x60
30000894:	e3a03456 	mov	r3, #1442840576	; 0x56000000
30000898:	e2833060 	add	r3, r3, #96	; 0x60
3000089c:	e5933000 	ldr	r3, [r3]
300008a0:	e3833502 	orr	r3, r3, #8388608	; 0x800000
300008a4:	e3833080 	orr	r3, r3, #128	; 0x80
300008a8:	e5823000 	str	r3, [r2]
300008ac:	e3a02456 	mov	r2, #1442840576	; 0x56000000
300008b0:	e2822088 	add	r2, r2, #136	; 0x88
300008b4:	e3a03456 	mov	r3, #1442840576	; 0x56000000
300008b8:	e2833088 	add	r3, r3, #136	; 0x88
300008bc:	e5933000 	ldr	r3, [r3]
300008c0:	e3833c07 	orr	r3, r3, #1792	; 0x700
300008c4:	e3833007 	orr	r3, r3, #7	; 0x7
300008c8:	e5823000 	str	r3, [r2]
300008cc:	e3a02456 	mov	r2, #1442840576	; 0x56000000
300008d0:	e282208c 	add	r2, r2, #140	; 0x8c
300008d4:	e3a03456 	mov	r3, #1442840576	; 0x56000000
300008d8:	e283308c 	add	r3, r3, #140	; 0x8c
300008dc:	e5933000 	ldr	r3, [r3]
300008e0:	e3833a07 	orr	r3, r3, #28672	; 0x7000
300008e4:	e5823000 	str	r3, [r2]
300008e8:	e3a02456 	mov	r2, #1442840576	; 0x56000000
300008ec:	e2822090 	add	r2, r2, #144	; 0x90
300008f0:	e3a03456 	mov	r3, #1442840576	; 0x56000000
300008f4:	e2833090 	add	r3, r3, #144	; 0x90
300008f8:	e5933000 	ldr	r3, [r3]
300008fc:	e3833a07 	orr	r3, r3, #28672	; 0x7000
30000900:	e5823000 	str	r3, [r2]
30000904:	e3a02456 	mov	r2, #1442840576	; 0x56000000
30000908:	e28220a4 	add	r2, r2, #164	; 0xa4
3000090c:	e3a03456 	mov	r3, #1442840576	; 0x56000000
30000910:	e28330a4 	add	r3, r3, #164	; 0xa4
30000914:	e5933000 	ldr	r3, [r3]
30000918:	e3c33702 	bic	r3, r3, #524288	; 0x80000
3000091c:	e3c33b02 	bic	r3, r3, #2048	; 0x800
30000920:	e5823000 	str	r3, [r2]
30000924:	e28bd000 	add	sp, fp, #0	; 0x0
30000928:	e8bd0800 	pop	{fp}
3000092c:	e12fff1e 	bx	lr

30000930 <irq_controller_init>:
30000930:	e52db004 	push	{fp}		; (str fp, [sp, #-4]!)
30000934:	e28db000 	add	fp, sp, #0	; 0x0
30000938:	e3a0244a 	mov	r2, #1241513984	; 0x4a000000
3000093c:	e2822008 	add	r2, r2, #8	; 0x8
30000940:	e3a0344a 	mov	r3, #1241513984	; 0x4a000000
30000944:	e2833008 	add	r3, r3, #8	; 0x8
30000948:	e5933000 	ldr	r3, [r3]
3000094c:	e3c33025 	bic	r3, r3, #37	; 0x25
30000950:	e5823000 	str	r3, [r2]
30000954:	e28bd000 	add	sp, fp, #0	; 0x0
30000958:	e8bd0800 	pop	{fp}
3000095c:	e12fff1e 	bx	lr

30000960 <irq_handle>:
30000960:	e52db004 	push	{fp}		; (str fp, [sp, #-4]!)
30000964:	e28db000 	add	fp, sp, #0	; 0x0
30000968:	e24dd00c 	sub	sp, sp, #12	; 0xc
3000096c:	e3a0344a 	mov	r3, #1241513984	; 0x4a000000
30000970:	e2833014 	add	r3, r3, #20	; 0x14
30000974:	e5933000 	ldr	r3, [r3]
30000978:	e50b3008 	str	r3, [fp, #-8]
3000097c:	e51b3008 	ldr	r3, [fp, #-8]
30000980:	e3530000 	cmp	r3, #0	; 0x0
30000984:	1a000016 	bne	300009e4 <irq_handle+0x84>
30000988:	e3a03456 	mov	r3, #1442840576	; 0x56000000
3000098c:	e2833054 	add	r3, r3, #84	; 0x54
30000990:	e5933000 	ldr	r3, [r3]
30000994:	e2033001 	and	r3, r3, #1	; 0x1
30000998:	e20330ff 	and	r3, r3, #255	; 0xff
3000099c:	e3530000 	cmp	r3, #0	; 0x0
300009a0:	0a000007 	beq	300009c4 <irq_handle+0x64>
300009a4:	e3a02456 	mov	r2, #1442840576	; 0x56000000
300009a8:	e2822054 	add	r2, r2, #84	; 0x54
300009ac:	e3a03456 	mov	r3, #1442840576	; 0x56000000
300009b0:	e2833054 	add	r3, r3, #84	; 0x54
300009b4:	e5933000 	ldr	r3, [r3]
300009b8:	e3833010 	orr	r3, r3, #16	; 0x10
300009bc:	e5823000 	str	r3, [r2]
300009c0:	ea000073 	b	30000b94 <irq_handle+0x234>
300009c4:	e3a02456 	mov	r2, #1442840576	; 0x56000000
300009c8:	e2822054 	add	r2, r2, #84	; 0x54
300009cc:	e3a03456 	mov	r3, #1442840576	; 0x56000000
300009d0:	e2833054 	add	r3, r3, #84	; 0x54
300009d4:	e5933000 	ldr	r3, [r3]
300009d8:	e3c33010 	bic	r3, r3, #16	; 0x10
300009dc:	e5823000 	str	r3, [r2]
300009e0:	ea00006b 	b	30000b94 <irq_handle+0x234>
300009e4:	e51b3008 	ldr	r3, [fp, #-8]
300009e8:	e3530002 	cmp	r3, #2	; 0x2
300009ec:	1a000015 	bne	30000a48 <irq_handle+0xe8>
300009f0:	e3a03456 	mov	r3, #1442840576	; 0x56000000
300009f4:	e2833054 	add	r3, r3, #84	; 0x54
300009f8:	e5933000 	ldr	r3, [r3]
300009fc:	e2033004 	and	r3, r3, #4	; 0x4
30000a00:	e3530000 	cmp	r3, #0	; 0x0
30000a04:	0a000007 	beq	30000a28 <irq_handle+0xc8>
30000a08:	e3a02456 	mov	r2, #1442840576	; 0x56000000
30000a0c:	e2822054 	add	r2, r2, #84	; 0x54
30000a10:	e3a03456 	mov	r3, #1442840576	; 0x56000000
30000a14:	e2833054 	add	r3, r3, #84	; 0x54
30000a18:	e5933000 	ldr	r3, [r3]
30000a1c:	e3833020 	orr	r3, r3, #32	; 0x20
30000a20:	e5823000 	str	r3, [r2]
30000a24:	ea00005a 	b	30000b94 <irq_handle+0x234>
30000a28:	e3a02456 	mov	r2, #1442840576	; 0x56000000
30000a2c:	e2822054 	add	r2, r2, #84	; 0x54
30000a30:	e3a03456 	mov	r3, #1442840576	; 0x56000000
30000a34:	e2833054 	add	r3, r3, #84	; 0x54
30000a38:	e5933000 	ldr	r3, [r3]
30000a3c:	e3c33020 	bic	r3, r3, #32	; 0x20
30000a40:	e5823000 	str	r3, [r2]
30000a44:	ea000052 	b	30000b94 <irq_handle+0x234>
30000a48:	e51b3008 	ldr	r3, [fp, #-8]
30000a4c:	e3530005 	cmp	r3, #5	; 0x5
30000a50:	1a00004f 	bne	30000b94 <irq_handle+0x234>
30000a54:	e3a03456 	mov	r3, #1442840576	; 0x56000000
30000a58:	e28330a8 	add	r3, r3, #168	; 0xa8
30000a5c:	e5933000 	ldr	r3, [r3]
30000a60:	e2033b02 	and	r3, r3, #2048	; 0x800
30000a64:	e3530000 	cmp	r3, #0	; 0x0
30000a68:	0a00001c 	beq	30000ae0 <irq_handle+0x180>
30000a6c:	e3a03456 	mov	r3, #1442840576	; 0x56000000
30000a70:	e2833064 	add	r3, r3, #100	; 0x64
30000a74:	e5933000 	ldr	r3, [r3]
30000a78:	e2033008 	and	r3, r3, #8	; 0x8
30000a7c:	e3530000 	cmp	r3, #0	; 0x0
30000a80:	0a000007 	beq	30000aa4 <irq_handle+0x144>
30000a84:	e3a02456 	mov	r2, #1442840576	; 0x56000000
30000a88:	e2822054 	add	r2, r2, #84	; 0x54
30000a8c:	e3a03456 	mov	r3, #1442840576	; 0x56000000
30000a90:	e2833054 	add	r3, r3, #84	; 0x54
30000a94:	e5933000 	ldr	r3, [r3]
30000a98:	e3833040 	orr	r3, r3, #64	; 0x40
30000a9c:	e5823000 	str	r3, [r2]
30000aa0:	ea000006 	b	30000ac0 <irq_handle+0x160>
30000aa4:	e3a02456 	mov	r2, #1442840576	; 0x56000000
30000aa8:	e2822054 	add	r2, r2, #84	; 0x54
30000aac:	e3a03456 	mov	r3, #1442840576	; 0x56000000
30000ab0:	e2833054 	add	r3, r3, #84	; 0x54
30000ab4:	e5933000 	ldr	r3, [r3]
30000ab8:	e3c33040 	bic	r3, r3, #64	; 0x40
30000abc:	e5823000 	str	r3, [r2]
30000ac0:	e3a02456 	mov	r2, #1442840576	; 0x56000000
30000ac4:	e28220a8 	add	r2, r2, #168	; 0xa8
30000ac8:	e3a03456 	mov	r3, #1442840576	; 0x56000000
30000acc:	e28330a8 	add	r3, r3, #168	; 0xa8
30000ad0:	e5933000 	ldr	r3, [r3]
30000ad4:	e3833b02 	orr	r3, r3, #2048	; 0x800
30000ad8:	e5823000 	str	r3, [r2]
30000adc:	ea00002c 	b	30000b94 <irq_handle+0x234>
30000ae0:	e3a03456 	mov	r3, #1442840576	; 0x56000000
30000ae4:	e28330a8 	add	r3, r3, #168	; 0xa8
30000ae8:	e5933000 	ldr	r3, [r3]
30000aec:	e2033702 	and	r3, r3, #524288	; 0x80000
30000af0:	e3530000 	cmp	r3, #0	; 0x0
30000af4:	0a00001c 	beq	30000b6c <irq_handle+0x20c>
30000af8:	e3a03456 	mov	r3, #1442840576	; 0x56000000
30000afc:	e2833064 	add	r3, r3, #100	; 0x64
30000b00:	e5933000 	ldr	r3, [r3]
30000b04:	e2033b02 	and	r3, r3, #2048	; 0x800
30000b08:	e3530000 	cmp	r3, #0	; 0x0
30000b0c:	0a000007 	beq	30000b30 <irq_handle+0x1d0>
30000b10:	e3a02456 	mov	r2, #1442840576	; 0x56000000
30000b14:	e2822054 	add	r2, r2, #84	; 0x54
30000b18:	e3a03456 	mov	r3, #1442840576	; 0x56000000
30000b1c:	e2833054 	add	r3, r3, #84	; 0x54
30000b20:	e5933000 	ldr	r3, [r3]
30000b24:	e3833070 	orr	r3, r3, #112	; 0x70
30000b28:	e5823000 	str	r3, [r2]
30000b2c:	ea000006 	b	30000b4c <irq_handle+0x1ec>
30000b30:	e3a02456 	mov	r2, #1442840576	; 0x56000000
30000b34:	e2822054 	add	r2, r2, #84	; 0x54
30000b38:	e3a03456 	mov	r3, #1442840576	; 0x56000000
30000b3c:	e2833054 	add	r3, r3, #84	; 0x54
30000b40:	e5933000 	ldr	r3, [r3]
30000b44:	e3c33070 	bic	r3, r3, #112	; 0x70
30000b48:	e5823000 	str	r3, [r2]
30000b4c:	e3a02456 	mov	r2, #1442840576	; 0x56000000
30000b50:	e28220a8 	add	r2, r2, #168	; 0xa8
30000b54:	e3a03456 	mov	r3, #1442840576	; 0x56000000
30000b58:	e28330a8 	add	r3, r3, #168	; 0xa8
30000b5c:	e5933000 	ldr	r3, [r3]
30000b60:	e3833702 	orr	r3, r3, #524288	; 0x80000
30000b64:	e5823000 	str	r3, [r2]
30000b68:	ea000009 	b	30000b94 <irq_handle+0x234>
30000b6c:	e3a02456 	mov	r2, #1442840576	; 0x56000000
30000b70:	e28220a8 	add	r2, r2, #168	; 0xa8
30000b74:	e3a03456 	mov	r3, #1442840576	; 0x56000000
30000b78:	e28330a8 	add	r3, r3, #168	; 0xa8
30000b7c:	e5931000 	ldr	r1, [r3]
30000b80:	e3a03456 	mov	r3, #1442840576	; 0x56000000
30000b84:	e28330a8 	add	r3, r3, #168	; 0xa8
30000b88:	e5933000 	ldr	r3, [r3]
30000b8c:	e1813003 	orr	r3, r1, r3
30000b90:	e5823000 	str	r3, [r2]
30000b94:	e3a0044a 	mov	r0, #1241513984	; 0x4a000000
30000b98:	e3a0344a 	mov	r3, #1241513984	; 0x4a000000
30000b9c:	e5931000 	ldr	r1, [r3]
30000ba0:	e3a02001 	mov	r2, #1	; 0x1
30000ba4:	e51b3008 	ldr	r3, [fp, #-8]
30000ba8:	e1a03312 	lsl	r3, r2, r3
30000bac:	e1813003 	orr	r3, r1, r3
30000bb0:	e5803000 	str	r3, [r0]
30000bb4:	e3a0144a 	mov	r1, #1241513984	; 0x4a000000
30000bb8:	e2811010 	add	r1, r1, #16	; 0x10
30000bbc:	e3a0344a 	mov	r3, #1241513984	; 0x4a000000
30000bc0:	e2833010 	add	r3, r3, #16	; 0x10
30000bc4:	e5930000 	ldr	r0, [r3]
30000bc8:	e3a02001 	mov	r2, #1	; 0x1
30000bcc:	e51b3008 	ldr	r3, [fp, #-8]
30000bd0:	e1a03312 	lsl	r3, r2, r3
30000bd4:	e1803003 	orr	r3, r0, r3
30000bd8:	e5813000 	str	r3, [r1]
30000bdc:	e28bd000 	add	sp, fp, #0	; 0x0
30000be0:	e8bd0800 	pop	{fp}
30000be4:	e12fff1e 	bx	lr
Disassembly of section .rodata:

30000be8 <.rodata>:
30000be8:	00007830 	andeq	r7, r0, r0, lsr r8
30000bec:	6c6c6548 	cfstr64vs	mvdx6, [ip], #-288
30000bf0:	6f77206f 	svcvs	0x0077206f
30000bf4:	21646c72 	.word	0x21646c72
30000bf8:	00000d0a 	andeq	r0, r0, sl, lsl #26
Disassembly of section .ARM.attributes:

00000000 <.ARM.attributes>:
   0:	00002541 	andeq	r2, r0, r1, asr #10
   4:	61656100 	cmnvs	r5, r0, lsl #2
   8:	01006962 	tsteq	r0, r2, ror #18
   c:	0000001b 	andeq	r0, r0, fp, lsl r0
  10:	00543405 	subseq	r3, r4, r5, lsl #8
  14:	01080206 	tsteq	r8, r6, lsl #4
  18:	01140412 	tsteq	r4, r2, lsl r4
  1c:	03170115 	tsteq	r7, #1073741829	; 0x40000005
  20:	01190118 	tsteq	r9, r8, lsl r1
  24:	Address 0x00000024 is out of bounds.

Disassembly of section .comment:

00000000 <.comment>:
   0:	43434700 	movtmi	r4, #14080	; 0x3700
   4:	5328203a 	teqpl	r8, #58	; 0x3a
   8:	6372756f 	cmnvs	r2, #465567744	; 0x1bc00000
   c:	20797265 	rsbscs	r7, r9, r5, ror #4
  10:	202b2b47 	eorcs	r2, fp, r7, asr #22
  14:	6574694c 	ldrbvs	r6, [r4, #-2380]!
  18:	30303220 	eorscc	r3, r0, r0, lsr #4
  1c:	2d337138 	ldfcss	f7, [r3, #-224]!
  20:	20293237 	eorcs	r3, r9, r7, lsr r2
  24:	2e332e34 	mrccs	14, 1, r2, cr3, cr4, {1}
  28:	47000032 	smladxmi	r0, r2, r0, r0
  2c:	203a4343 	eorscs	r4, sl, r3, asr #6
  30:	756f5328 	strbvc	r5, [pc, #-808]!	; fffffd10 <__bss_start+0xcffff114>
  34:	72656372 	rsbvc	r6, r5, #-939524095	; 0xc8000001
  38:	2b472079 	blcs	11c8224 <_start-0x2ee37ddc>
  3c:	694c202b 	stmdbvs	ip, {r0, r1, r3, r5, sp}^
  40:	32206574 	eorcc	r6, r0, #486539264	; 0x1d000000
  44:	71383030 	teqvc	r8, r0, lsr r0
  48:	32372d33 	eorscc	r2, r7, #3264	; 0xcc0
  4c:	2e342029 	cdpcs	0, 3, cr2, cr4, cr9, {1}
  50:	00322e33 	eorseq	r2, r2, r3, lsr lr
  54:	43434700 	movtmi	r4, #14080	; 0x3700
  58:	5328203a 	teqpl	r8, #58	; 0x3a
  5c:	6372756f 	cmnvs	r2, #465567744	; 0x1bc00000
  60:	20797265 	rsbscs	r7, r9, r5, ror #4
  64:	202b2b47 	eorcs	r2, fp, r7, asr #22
  68:	6574694c 	ldrbvs	r6, [r4, #-2380]!
  6c:	30303220 	eorscc	r3, r0, r0, lsr #4
  70:	2d337138 	ldfcss	f7, [r3, #-224]!
  74:	20293237 	eorcs	r3, r9, r7, lsr r2
  78:	2e332e34 	mrccs	14, 1, r2, cr3, cr4, {1}
  7c:	47000032 	smladxmi	r0, r2, r0, r0
  80:	203a4343 	eorscs	r4, sl, r3, asr #6
  84:	756f5328 	strbvc	r5, [pc, #-808]!	; fffffd64 <__bss_start+0xcffff168>
  88:	72656372 	rsbvc	r6, r5, #-939524095	; 0xc8000001
  8c:	2b472079 	blcs	11c8278 <_start-0x2ee37d88>
  90:	694c202b 	stmdbvs	ip, {r0, r1, r3, r5, sp}^
  94:	32206574 	eorcc	r6, r0, #486539264	; 0x1d000000
  98:	71383030 	teqvc	r8, r0, lsr r0
  9c:	32372d33 	eorscc	r2, r7, #3264	; 0xcc0
  a0:	2e342029 	cdpcs	0, 3, cr2, cr4, cr9, {1}
  a4:	00322e33 	eorseq	r2, r2, r3, lsr lr
  a8:	43434700 	movtmi	r4, #14080	; 0x3700
  ac:	5328203a 	teqpl	r8, #58	; 0x3a
  b0:	6372756f 	cmnvs	r2, #465567744	; 0x1bc00000
  b4:	20797265 	rsbscs	r7, r9, r5, ror #4
  b8:	202b2b47 	eorcs	r2, fp, r7, asr #22
  bc:	6574694c 	ldrbvs	r6, [r4, #-2380]!
  c0:	30303220 	eorscc	r3, r0, r0, lsr #4
  c4:	2d337138 	ldfcss	f7, [r3, #-224]!
  c8:	20293237 	eorcs	r3, r9, r7, lsr r2
  cc:	2e332e34 	mrccs	14, 1, r2, cr3, cr4, {1}
  d0:	Address 0x000000d0 is out of bounds.

